target datalayout = "e-m:e-p270:32:32-p271:32:32-p272:64:64-i64:64-i128:128-f80:128-n8:16:32:64-S128"
target triple = "x86_64-pc-linux-gnu"

%struct.SharedRecordTableKey = type { %union.anon, i8 }
%union.anon = type { ptr }

; Function Attrs: nounwind uwtable
define internal i32 @shared_record_table_compare(ptr noundef %0, ptr noundef %1, i64 noundef %2, ptr noundef %3) #0 {
  %5 = alloca ptr, align 8
  %6 = alloca ptr, align 8
  %7 = alloca i64, align 8
  %8 = alloca ptr, align 8
  %9 = alloca ptr, align 8
  %10 = alloca ptr, align 8
  %11 = alloca ptr, align 8
  %12 = alloca ptr, align 8
  %13 = alloca ptr, align 8
  store ptr %0, ptr %5, align 8
  store ptr %1, ptr %6, align 8
  store i64 %2, ptr %7, align 8
  store ptr %3, ptr %8, align 8
  call void @llvm.lifetime.start.p0(i64 8, ptr %9) #11
  %14 = load ptr, ptr %8, align 8
  store ptr %14, ptr %9, align 8
  call void @llvm.lifetime.start.p0(i64 8, ptr %10) #11
  %15 = load ptr, ptr %5, align 8
  store ptr %15, ptr %10, align 8
  call void @llvm.lifetime.start.p0(i64 8, ptr %11) #11
  %16 = load ptr, ptr %6, align 8
  store ptr %16, ptr %11, align 8
  call void @llvm.lifetime.start.p0(i64 8, ptr %12) #11
  call void @llvm.lifetime.start.p0(i64 8, ptr %13) #11
  %17 = load ptr, ptr %10, align 8
  %18 = getelementptr inbounds nuw %struct.SharedRecordTableKey, ptr %17, i32 0, i32 1
  %19 = load i8, ptr %18, align 8, !range !4, !noundef !5
  %20 = trunc i8 %19 to i1
  br i1 %20, label %21, label %27

21:                                               ; preds = %4
  %22 = load ptr, ptr %9, align 8
  %23 = load ptr, ptr %10, align 8
  %24 = getelementptr inbounds nuw %struct.SharedRecordTableKey, ptr %23, i32 0, i32 0
  %25 = load i64, ptr %24, align 8
  %26 = call ptr @dsa_get_address(ptr noundef %22, i64 noundef %25)
  store ptr %26, ptr %12, align 8
  br label %31

27:                                               ; preds = %4
  %28 = load ptr, ptr %10, align 8
  %29 = getelementptr inbounds nuw %struct.SharedRecordTableKey, ptr %28, i32 0, i32 0
  %30 = load ptr, ptr %29, align 8
  store ptr %30, ptr %12, align 8
  br label %31

31:                                               ; preds = %27, %21
  %32 = load ptr, ptr %11, align 8
  %33 = getelementptr inbounds nuw %struct.SharedRecordTableKey, ptr %32, i32 0, i32 1
  %34 = load i8, ptr %33, align 8, !range !4, !noundef !5
  %35 = trunc i8 %34 to i1
  br i1 %35, label %36, label %42

36:                                               ; preds = %31
  %37 = load ptr, ptr %9, align 8
  %38 = load ptr, ptr %11, align 8
  %39 = getelementptr inbounds nuw %struct.SharedRecordTableKey, ptr %38, i32 0, i32 0
  %40 = load i64, ptr %39, align 8
  %41 = call ptr @dsa_get_address(ptr noundef %37, i64 noundef %40)
  store ptr %41, ptr %13, align 8
  br label %46

42:                                               ; preds = %31
  %43 = load ptr, ptr %11, align 8
  %44 = getelementptr inbounds nuw %struct.SharedRecordTableKey, ptr %43, i32 0, i32 0
  %45 = load ptr, ptr %44, align 8
  store ptr %45, ptr %13, align 8
  br label %46

46:                                               ; preds = %42, %36
  %47 = load ptr, ptr %12, align 8
  %48 = load ptr, ptr %13, align 8
  %49 = call zeroext i1 @equalRowTypes(ptr noundef %47, ptr noundef %48)
  %50 = select i1 %49, i32 0, i32 1
  call void @llvm.lifetime.end.p0(i64 8, ptr %13) #11
  call void @llvm.lifetime.end.p0(i64 8, ptr %12) #11
  call void @llvm.lifetime.end.p0(i64 8, ptr %11) #11
  call void @llvm.lifetime.end.p0(i64 8, ptr %10) #11
  call void @llvm.lifetime.end.p0(i64 8, ptr %9) #11
  ret i32 %50
}