; Function Attrs: nounwind uwtable
define internal range(i32 0, 2) i32 @shared_record_table_compare(ptr noundef readonly captures(none) %0, ptr noundef readonly captures(none) %1, i64 %2, ptr noundef %3) #0 {
  %5 = getelementptr inbounds nuw i8, ptr %0, i64 8
  %6 = load i8, ptr %5, align 8, !range !4, !noundef !5
  %7 = trunc nuw i8 %6 to i1
  br i1 %7, label %8, label %11

8:                                                ; preds = %4
  %9 = load i64, ptr %0, align 8
  %10 = tail call ptr @dsa_get_address(ptr noundef %3, i64 noundef %9) #16
  br label %13

11:                                               ; preds = %4
  %12 = load ptr, ptr %0, align 8
  br label %13

13:                                               ; preds = %11, %8
  %.013 = phi ptr [ %10, %8 ], [ %12, %11 ]
  %14 = getelementptr inbounds nuw i8, ptr %1, i64 8
  %15 = load i8, ptr %14, align 8, !range !4, !noundef !5
  %16 = trunc nuw i8 %15 to i1
  br i1 %16, label %17, label %20

17:                                               ; preds = %13
  %18 = load i64, ptr %1, align 8
  %19 = tail call ptr @dsa_get_address(ptr noundef %3, i64 noundef %18) #16
  br label %22

20:                                               ; preds = %13
  %21 = load ptr, ptr %1, align 8
  br label %22

22:                                               ; preds = %20, %17
  %.0 = phi ptr [ %19, %17 ], [ %21, %20 ]
  %23 = tail call zeroext i1 @equalRowTypes(ptr noundef %.013, ptr noundef %.0) #16
  %not. = xor i1 %23, true
  %24 = zext i1 %not. to i32
  ret i32 %24
}